(lp1
S'http://www.indeed.com/rc/clk?jk=521edb6fb18e53fa'
p2
aS'http://www.indeed.com/rc/clk?jk=172c90d7fcbf950e'
p3
aS'http://www.indeed.com/rc/clk?jk=eaa6aa66c81e78b5'
p4
aS'http://www.indeed.com/rc/clk?jk=120628ebba7ba841'
p5
aS'http://www.indeed.com/rc/clk?jk=c00e9d5afd419790'
p6
aS'http://www.indeed.com/rc/clk?jk=cf6c186a2aeba2e2'
p7
aS'http://www.indeed.com/rc/clk?jk=b6aea43ee81bd4b3'
p8
aS'http://www.indeed.com/rc/clk?jk=4827093edc4d0ca7'
p9
aS'http://www.indeed.com/rc/clk?jk=49b329a2bd63bdd2'
p10
aS'http://www.indeed.com/rc/clk?jk=4e71c9a92cfc8e3d'
p11
aS'http://www.indeed.com/rc/clk?jk=996759906aff23ae'
p12
aS'http://www.indeed.com/rc/clk?jk=89e9c3c361be7b68'
p13
aS'http://www.indeed.com/rc/clk?jk=3b0e164a990e9082'
p14
aS'http://www.indeed.com/rc/clk?jk=7fba9d687f5ed337'
p15
aS'http://www.indeed.com/rc/clk?jk=3970abe79e6391d9'
p16
aS'http://www.indeed.com/rc/clk?jk=d6bc798e69d40fcf'
p17
aS'http://www.indeed.com/rc/clk?jk=f959d1795fae02d2'
p18
aS'http://www.indeed.com/rc/clk?jk=7881aea3815368f2'
p19
aS'http://www.indeed.com/rc/clk?jk=b757af4932fa08e4'
p20
aS'http://www.indeed.com/rc/clk?jk=51753a0abd7be918'
p21
aS'http://www.indeed.com/rc/clk?jk=ffcb82a5db5d28a9'
p22
aS'http://www.indeed.com/rc/clk?jk=664bdb489f2d7516'
p23
aS'http://www.indeed.com/rc/clk?jk=a6656296dd4b02c0'
p24
aS'http://www.indeed.com/rc/clk?jk=6367d3e03beca8c4'
p25
aS'http://www.indeed.com/rc/clk?jk=6cbef6666142fef8'
p26
aS'http://www.indeed.com/rc/clk?jk=55826d0ecaf2b5a1'
p27
aS'http://www.indeed.com/rc/clk?jk=58b41ee8923c65c8'
p28
aS'http://www.indeed.com/rc/clk?jk=f3543b1e65e864f0'
p29
aS'http://www.indeed.com/rc/clk?jk=f5b4e047cf4a35c9'
p30
aS'http://www.indeed.com/rc/clk?jk=8d3b31a2e8222e01'
p31
aS'http://www.indeed.com/rc/clk?jk=d2d36db54139a282'
p32
aS'http://www.indeed.com/rc/clk?jk=00165616c39ef2de'
p33
aS'http://www.indeed.com/rc/clk?jk=4497f66d180ce654'
p34
aS'http://www.indeed.com/rc/clk?jk=99cc9d7a3b1cfe94'
p35
aS'http://www.indeed.com/rc/clk?jk=6cca0fb23c3e100f'
p36
aS'http://www.indeed.com/rc/clk?jk=9ac30c0d174daf03'
p37
aS'http://www.indeed.com/rc/clk?jk=9ac30c0d174daf03'
p38
aS'http://www.indeed.com/rc/clk?jk=03abc9fe89ae3772'
p39
aS'http://www.indeed.com/rc/clk?jk=8d3b31a2e8222e01'
p40
aS'http://www.indeed.com/rc/clk?jk=f3543b1e65e864f0'
p41
aS'http://www.indeed.com/rc/clk?jk=f5b4e047cf4a35c9'
p42
aS'http://www.indeed.com/rc/clk?jk=d2d36db54139a282'
p43
aS'http://www.indeed.com/rc/clk?jk=8ff1a88175dfe4e8'
p44
aS'http://www.indeed.com/rc/clk?jk=9e65777afa373efc'
p45
aS'http://www.indeed.com/rc/clk?jk=0018de5301c08da9'
p46
aS'http://www.indeed.com/rc/clk?jk=c53566d3ba82711f'
p47
aS'http://www.indeed.com/rc/clk?jk=a7a75491c17184d5'
p48
aS'http://www.indeed.com/rc/clk?jk=add45772b4273209'
p49
aS'http://www.indeed.com/rc/clk?jk=6cca0fb23c3e100f'
p50
aS'http://www.indeed.com/rc/clk?jk=4497f66d180ce654'
p51
aS'http://www.indeed.com/rc/clk?jk=99cc9d7a3b1cfe94'
p52
aS'http://www.indeed.com/rc/clk?jk=3fa73431360ac893'
p53
aS'http://www.indeed.com/rc/clk?jk=00e5e230ec4f3afa'
p54
aS'http://www.indeed.com/rc/clk?jk=9a17db6553599156'
p55
aS'http://www.indeed.com/rc/clk?jk=64b33a43cc4ebe2a'
p56
aS'http://www.indeed.com/rc/clk?jk=ccf7eaccccd47ddb'
p57
aS'http://www.indeed.com/rc/clk?jk=124b88b29598e8a5'
p58
aS'http://www.indeed.com/rc/clk?jk=0018de5301c08da9'
p59
aS'http://www.indeed.com/rc/clk?jk=441188ffa2a1ab14'
p60
aS'http://www.indeed.com/rc/clk?jk=06fa257274d4e736'
p61
aS'http://www.indeed.com/rc/clk?jk=9e65777afa373efc'
p62
aS'http://www.indeed.com/rc/clk?jk=12a077e54a2aac42'
p63
aS'http://www.indeed.com/rc/clk?jk=17e13c1785d08dca'
p64
aS'http://www.indeed.com/rc/clk?jk=17e13c1785d08dca'
p65
aS'http://www.indeed.com/rc/clk?jk=143ffe1a52a56b40'
p66
aS'http://www.indeed.com/rc/clk?jk=1d79dd2aacbf5697'
p67
aS'http://www.indeed.com/rc/clk?jk=491670dd5ba8cfbe'
p68
aS'http://www.indeed.com/rc/clk?jk=01d8ca7575c70e3a'
p69
aS'http://www.indeed.com/rc/clk?jk=3fa73431360ac893'
p70
aS'http://www.indeed.com/rc/clk?jk=abe0dc0bd42c19d8'
p71
aS'http://www.indeed.com/rc/clk?jk=2068d4985a750954'
p72
aS'http://www.indeed.com/rc/clk?jk=0cc3b425c3b800ed'
p73
aS'http://www.indeed.com/rc/clk?jk=816807dc8995809e'
p74
aS'http://www.indeed.com/rc/clk?jk=ffef9d1a9cad0aca'
p75
aS'http://www.indeed.com/rc/clk?jk=c53566d3ba82711f'
p76
aS'http://www.indeed.com/rc/clk?jk=dde747c5d09b2791'
p77
aS'http://www.indeed.com/rc/clk?jk=b25a549d659ade71'
p78
aS'http://www.indeed.com/rc/clk?jk=a778b2642179b920'
p79
aS'http://www.indeed.com/rc/clk?jk=423c28977bfc6c28'
p80
aS'http://www.indeed.com/rc/clk?jk=ae3fb4cd4da372a9'
p81
aS'http://www.indeed.com/rc/clk?jk=4e71c9a92cfc8e3d'
p82
aS'http://www.indeed.com/rc/clk?jk=ae3fb4cd4da372a9'
p83
aS'http://www.indeed.com/rc/clk?jk=049854645ffd3cb1'
p84
aS'http://www.indeed.com/rc/clk?jk=82896e026f994fca'
p85
aS'http://www.indeed.com/rc/clk?jk=1c7d6b426dafbb24'
p86
aS'http://www.indeed.com/rc/clk?jk=9ac82385d2a576ec'
p87
aS'http://www.indeed.com/rc/clk?jk=f6d1b361e523eb5a'
p88
aS'http://www.indeed.com/rc/clk?jk=b693756e0f3e9728'
p89
aS'http://www.indeed.com/rc/clk?jk=69f561c206afda9b'
p90
aS'http://www.indeed.com/rc/clk?jk=eae07b26604c9d59'
p91
aS'http://www.indeed.com/rc/clk?jk=72240c3947c8618f'
p92
aS'http://www.indeed.com/rc/clk?jk=4e203f236a99e1f5'
p93
aS'http://www.indeed.com/rc/clk?jk=777f92ab0f8b9ff8'
p94
aS'http://www.indeed.com/rc/clk?jk=c45b26725e6669a0'
p95
aS'http://www.indeed.com/rc/clk?jk=143ffe1a52a56b40'
p96
aS'http://www.indeed.com/rc/clk?jk=d65713b2802c42d0'
p97
aS'http://www.indeed.com/rc/clk?jk=69f561c206afda9b'
p98
aS'http://www.indeed.com/rc/clk?jk=534bd6c8d68ce642'
p99
aS'http://www.indeed.com/rc/clk?jk=7e683e595f2f49b0'
p100
aS'http://www.indeed.com/rc/clk?jk=4bf714814bc093a2'
p101
aS'http://www.indeed.com/rc/clk?jk=ccf7eaccccd47ddb'
p102
aS'http://www.indeed.com/rc/clk?jk=1d79dd2aacbf5697'
p103
aS'http://www.indeed.com/rc/clk?jk=124b88b29598e8a5'
p104
aS'http://www.indeed.com/rc/clk?jk=5854b65c172f72f5'
p105
aS'http://www.indeed.com/rc/clk?jk=989fa43e9cd3a216'
p106
aS'http://www.indeed.com/rc/clk?jk=600d2f4504416d7b'
p107
aS'http://www.indeed.com/rc/clk?jk=fe191c268802d8ae'
p108
aS'http://www.indeed.com/rc/clk?jk=1d9bd7d16e124a51'
p109
aS'http://www.indeed.com/rc/clk?jk=77496dacf3645091'
p110
aS'http://www.indeed.com/rc/clk?jk=7ce33afab11bb4cd'
p111
aS'http://www.indeed.com/rc/clk?jk=143ffe1a52a56b40'
p112
aS'http://www.indeed.com/rc/clk?jk=777f92ab0f8b9ff8'
p113
aS'http://www.indeed.com/rc/clk?jk=ab653e8f8550e9fc'
p114
aS'http://www.indeed.com/rc/clk?jk=b19b90807b851cc1'
p115
aS'http://www.indeed.com/rc/clk?jk=90c9a89eb65e26a5'
p116
aS'http://www.indeed.com/rc/clk?jk=c45b26725e6669a0'
p117
aS'http://www.indeed.com/rc/clk?jk=17e13c1785d08dca'
p118
aS'http://www.indeed.com/rc/clk?jk=ab653e8f8550e9fc'
p119
aS'http://www.indeed.com/rc/clk?jk=816807dc8995809e'
p120
aS'http://www.indeed.com/rc/clk?jk=3531f92e3ca747ee'
p121
aS'http://www.indeed.com/rc/clk?jk=5a53c69b3dbe5912'
p122
aS'http://www.indeed.com/rc/clk?jk=0cc3b425c3b800ed'
p123
aS'http://www.indeed.com/rc/clk?jk=7ce33afab11bb4cd'
p124
aS'http://www.indeed.com/rc/clk?jk=95247eccb6221a09'
p125
aS'http://www.indeed.com/rc/clk?jk=b25a549d659ade71'
p126
aS'http://www.indeed.com/rc/clk?jk=0691cbaaea3a156a'
p127
aS'http://www.indeed.com/rc/clk?jk=124b88b29598e8a5'
p128
aS'http://www.indeed.com/rc/clk?jk=02031afbf2768f97'
p129
aS'http://www.indeed.com/rc/clk?jk=7ae4c06c84a28891'
p130
aS'http://www.indeed.com/rc/clk?jk=80576d8cb543c7bc'
p131
aS'http://www.indeed.com/rc/clk?jk=3f4cb6a55e0a80d1'
p132
aS'http://www.indeed.com/rc/clk?jk=cfb537cd72d1eae8'
p133
aS'http://www.indeed.com/rc/clk?jk=9766be58e2f88fff'
p134
aS'http://www.indeed.com/rc/clk?jk=c56a8cd75606964b'
p135
aS'http://www.indeed.com/rc/clk?jk=146526dd80bd47f1'
p136
aS'http://www.indeed.com/rc/clk?jk=68e4edc3b58803da'
p137
aS'http://www.indeed.com/rc/clk?jk=1c90ab1dd04f81ff'
p138
aS'http://www.indeed.com/rc/clk?jk=0691cbaaea3a156a'
p139
aS'http://www.indeed.com/rc/clk?jk=2670a9a92131d69d'
p140
aS'http://www.indeed.com/rc/clk?jk=5a53c69b3dbe5912'
p141
aS'http://www.indeed.com/rc/clk?jk=35ca44d117c65894'
p142
aS'http://www.indeed.com/rc/clk?jk=1fffc4462bdd51f0'
p143
aS'http://www.indeed.com/rc/clk?jk=687ce26a04dd4861'
p144
aS'http://www.indeed.com/rc/clk?jk=6faa196f5412f572'
p145
aS'http://www.indeed.com/rc/clk?jk=491670dd5ba8cfbe'
p146
aS'http://www.indeed.com/rc/clk?jk=ca17e0b2aca5d77e'
p147
aS'http://www.indeed.com/rc/clk?jk=4d25a4e6220c91f7'
p148
aS'http://www.indeed.com/rc/clk?jk=0f69a7ece38cacea'
p149
aS'http://www.indeed.com/rc/clk?jk=7836bad88b0137ff'
p150
aS'http://www.indeed.com/rc/clk?jk=abe0dc0bd42c19d8'
p151
aS'http://www.indeed.com/rc/clk?jk=0691cbaaea3a156a'
p152
aS'http://www.indeed.com/rc/clk?jk=6b44924543216c86'
p153
aS'http://www.indeed.com/rc/clk?jk=f86af08f82ec67e5'
p154
aS'http://www.indeed.com/rc/clk?jk=65ae9ff3f6506d44'
p155
aS'http://www.indeed.com/rc/clk?jk=7f154bad04503215'
p156
aS'http://www.indeed.com/rc/clk?jk=a8c0f8254ab07560'
p157
aS'http://www.indeed.com/rc/clk?jk=821b78f71d63d28b'
p158
aS'http://www.indeed.com/rc/clk?jk=82896e026f994fca'
p159
aS'http://www.indeed.com/rc/clk?jk=9e86014ff90f8f17'
p160
aS'http://www.indeed.com/rc/clk?jk=1c9f14f09ab3ca80'
p161
aS'http://www.indeed.com/rc/clk?jk=30a7de7b694d3e32'
p162
aS'http://www.indeed.com/rc/clk?jk=a1ad9038181ab91d'
p163
aS'http://www.indeed.com/rc/clk?jk=d64719461abe4e7e'
p164
aS'http://www.indeed.com/rc/clk?jk=46f81ab68581dfe9'
p165
aS'http://www.indeed.com/rc/clk?jk=cc59f1e34283686e'
p166
aS'http://www.indeed.com/rc/clk?jk=9e86014ff90f8f17'
p167
aS'http://www.indeed.com/rc/clk?jk=b9b332d499790b25'
p168
aS'http://www.indeed.com/rc/clk?jk=a1ad9038181ab91d'
p169
aS'http://www.indeed.com/rc/clk?jk=f9ef2f632bbcd1a6'
p170
aS'http://www.indeed.com/rc/clk?jk=a5b372ab0272c3bf'
p171
aS'http://www.indeed.com/rc/clk?jk=8a4c32d8eb141657'
p172
aS'http://www.indeed.com/rc/clk?jk=c31b5baee1433b41'
p173
aS'http://www.indeed.com/rc/clk?jk=a78c8ec1d6ca9b52'
p174
aS'http://www.indeed.com/rc/clk?jk=146fe606595b22b1'
p175
aS'http://www.indeed.com/rc/clk?jk=7c8ebfca47d59121'
p176
aS'http://www.indeed.com/rc/clk?jk=0f657343c493346c'
p177
aS'http://www.indeed.com/rc/clk?jk=77520fcf23cdd31d'
p178
aS'http://www.indeed.com/rc/clk?jk=520a3dc027f89e4e'
p179
aS'http://www.indeed.com/rc/clk?jk=2e129ff463fec1a7'
p180
aS'http://www.indeed.com/rc/clk?jk=48e306e848fdf5e7'
p181
a.